EXPORTS
    _ZN4APro10FileLoader12loadResourceERKNS_6StringE @1
    _ZN4APro10FileLoaderC1ERKS0_ @2
    _ZN4APro10FileLoaderC1Ev @3
    _ZN4APro10FileLoaderC2ERKS0_ @4
    _ZN4APro10FileLoaderC2Ev @5
    _ZN4APro10FileLoaderD0Ev @6
    _ZN4APro10FileLoaderD1Ev @7
    _ZN4APro10FileLoaderD2Ev @8
    _ZN4APro10FileWriterC1ERKS0_ @9
    _ZN4APro10FileWriterC1Ev @10
    _ZN4APro10FileWriterC2ERKS0_ @11
    _ZN4APro10FileWriterC2Ev @12
    _ZN4APro10FileWriterD0Ev @13
    _ZN4APro10FileWriterD1Ev @14
    _ZN4APro10FileWriterD2Ev @15
    _ZN4APro10NullLoader12loadResourceERKNS_6StringE @16
    _ZN4APro10NullLoaderC1ERKS0_ @17
    _ZN4APro10NullLoaderC1Ev @18
    _ZN4APro10NullLoaderC2ERKS0_ @19
    _ZN4APro10NullLoaderC2Ev @20
    _ZN4APro10NullLoaderD0Ev @21
    _ZN4APro10NullLoaderD1Ev @22
    _ZN4APro10NullLoaderD2Ev @23
    _ZN4APro10NullWriterC1ERKS0_ @24
    _ZN4APro10NullWriterC1Ev @25
    _ZN4APro10NullWriterC2ERKS0_ @26
    _ZN4APro10NullWriterC2Ev @27
    _ZN4APro10NullWriterD0Ev @28
    _ZN4APro10NullWriterD1Ev @29
    _ZN4APro10NullWriterD2Ev @30
    _ZN4APro10deallocateEPvPKcS2_i @31
    _ZN4APro10reallocateERPvjPKcS3_i @32
    _ZN4APro11keyToStringENS_3KEYE @33
    _ZN4APro12EventCounter3getEv @34
    _ZN4APro12EventCounter3popEv @35
    _ZN4APro12EventCounter4pushEv @36
    _ZN4APro12EventCounterC1Ev @37
    _ZN4APro12EventCounterC2Ev @38
    _ZN4APro12EventCounterD1Ev @39
    _ZN4APro12EventCounterD2Ev @40
    _ZN4APro12EventEmitter11addListenerERKNS_6StringE @41
    _ZN4APro12EventEmitter11getListenerERKNS_6StringE @42
    _ZN4APro12EventEmitter14removeListenerERKNS_6StringE @43
    _ZN4APro12EventEmitter15sendManualEventERKNS_13SharedPointerINS_5EventEEERNS1_INS_13EventListenerEEE @44
    _ZN4APro12EventEmitter16registerListenerERKNS_13SharedPointerINS_13EventListenerEEE @45
    _ZN4APro12EventEmitter17sendSpecificEventERKNS_13SharedPointerINS_5EventEEERKNS_6StringE @46
    _ZN4APro12EventEmitter9sendEventERKNS_13SharedPointerINS_5EventEEE @47
    _ZN4APro12EventEmitterC1ERKS0_ @48
    _ZN4APro12EventEmitterC1Ev @49
    _ZN4APro12EventEmitterC2ERKS0_ @50
    _ZN4APro12EventEmitterC2Ev @51
    _ZN4APro12EventEmitterD0Ev @52
    _ZN4APro12EventEmitterD1Ev @53
    _ZN4APro12EventEmitterD2Ev @54
    _ZN4APro12NullResource7destroyEv @55
    _ZN4APro12NullResourceC1ERKNS_6StringES3_ @56
    _ZN4APro12NullResourceC1Ev @57
    _ZN4APro12NullResourceC2ERKNS_6StringES3_ @58
    _ZN4APro12NullResourceC2Ev @59
    _ZN4APro12NullResourceD0Ev @60
    _ZN4APro12NullResourceD1Ev @61
    _ZN4APro12NullResourceD2Ev @62
    _ZN4APro12PluginHandle10initializeERKNS_13SharedPointerINS_14DynamicLibraryEEE @63
    _ZN4APro12PluginHandle16toDynamicLibraryEv @64
    _ZN4APro12PluginHandle17refreshPluginInfoEv @65
    _ZN4APro12PluginHandle3endEv @66
    _ZN4APro12PluginHandle7setNameERKNS_6StringE @67
    _ZN4APro12PluginHandleC1ERKNS_6StringE @68
    _ZN4APro12PluginHandleC1ERKNS_6StringERKNS_13SharedPointerINS_14DynamicLibraryEEE @69
    _ZN4APro12PluginHandleC1ERKS0_ @70
    _ZN4APro12PluginHandleC1Ev @71
    _ZN4APro12PluginHandleC2ERKNS_6StringE @72
    _ZN4APro12PluginHandleC2ERKNS_6StringERKNS_13SharedPointerINS_14DynamicLibraryEEE @73
    _ZN4APro12PluginHandleC2ERKS0_ @74
    _ZN4APro12PluginHandleC2Ev @75
    _ZN4APro12PluginHandleD1Ev @76
    _ZN4APro12PluginHandleD2Ev @77
    _ZN4APro13EventListener5purgeEv @78
    _ZN4APro13EventListener7receiveERKNS_13SharedPointerINS_5EventEEE @79
    _ZN4APro13EventListener8receivedERKNS_6StringE @80
    _ZN4APro13EventListenerC1ERKNS_6StringE @81
    _ZN4APro13EventListenerC1Ev @82
    _ZN4APro13EventListenerC2ERKNS_6StringE @83
    _ZN4APro13EventListenerC2Ev @84
    _ZN4APro13EventListenerD0Ev @85
    _ZN4APro13EventListenerD1Ev @86
    _ZN4APro13EventListenerD2Ev @87
    _ZN4APro13EventReceiver11addListenerERKNS_13SharedPointerINS_13EventListenerEEE @88
    _ZN4APro13EventReceiver11clearEventsEv @89
    _ZN4APro13EventReceiver11getListenerERKNS_6StringE @90
    _ZN4APro13EventReceiver12processEventERKNS_13SharedPointerINS_5EventEEE @91
    _ZN4APro13EventReceiver13processEventsEv @92
    _ZN4APro13EventReceiver14clearListenersEv @93
    _ZN4APro13EventReceiver14removeListenerERKNS_6StringE @94
    _ZN4APro13EventReceiver17addEventProcessedERKNS_6StringE @95
    _ZN4APro13EventReceiver20removeEventProcessedERKNS_6StringE @96
    _ZN4APro13EventReceiverC1Ev @97
    _ZN4APro13EventReceiverC2Ev @98
    _ZN4APro13EventReceiverD0Ev @99
    _ZN4APro13EventReceiverD1Ev @100
    _ZN4APro13EventReceiverD2Ev @101
    _ZN4APro13FileUtilities11isDirectoryERKNS_6StringE @102
    _ZN4APro13FileUtilities19filenameWithoutPathERKNS_6StringE @103
    _ZN4APro13FileUtilities24filenameWithoutExtensionERKNS_6StringE @104
    _ZN4APro13FileUtilities4pathERKNS_6StringE @105
    _ZN4APro13FileUtilities9extensionERKNS_6StringE @106
    _ZN4APro13FileUtilities9normalizeERKNS_6StringE @107
    _ZN4APro13FileUtilitiesC1Ev @108
    _ZN4APro13FileUtilitiesC2Ev @109
    _ZN4APro13FileUtilitiesD1Ev @110
    _ZN4APro13FileUtilitiesD2Ev @111
    _ZN4APro13MemoryTracker10deinitfileEv @112
    _ZN4APro13MemoryTracker11reportLeaksEv @113
    _ZN4APro13MemoryTracker11setFilenameERKSs @114
    _ZN4APro13MemoryTracker11updateStackEb @115
    _ZN4APro13MemoryTracker14setCutFilenameEb @116
    _ZN4APro13MemoryTracker14setLiveWritingEb @117
    _ZN4APro13MemoryTracker15processFilenameEPKc @118
    _ZN4APro13MemoryTracker16reportAllocationEPvjPKcS3_i @119
    _ZN4APro13MemoryTracker18reportDeallocationEPvPKcS3_i @120
    _ZN4APro13MemoryTracker18reportReallocationEPvS1_jPKcS3_i @121
    _ZN4APro13MemoryTracker18setMaxFilenameSizeEi @122
    _ZN4APro13MemoryTracker3getEv @123
    _ZN4APro13MemoryTracker4dumpERKSs @124
    _ZN4APro13MemoryTracker8initfileEv @125
    _ZN4APro13MemoryTracker9findBlockEPv @126
    _ZN4APro13MemoryTracker9setRetainEb @127
    _ZN4APro13MemoryTrackerC1Ev @128
    _ZN4APro13MemoryTrackerC2Ev @129
    _ZN4APro13MemoryTrackerD1Ev @130
    _ZN4APro13MemoryTrackerD2Ev @131
    _ZN4APro13PluginManager13getPluginInfoERKNS_6StringE @132
    _ZN4APro13PluginManager15addPluginHandleERKNS_6StringERKNS_13SharedPointerINS_14DynamicLibraryEEE @133
    _ZN4APro13PluginManager15addPluginHandleERKNS_6StringES3_ @134
    _ZN4APro13PluginManager15getPluginHandleERKNS_6StringE @135
    _ZN4APro13PluginManager18removePluginHandleERKNS_6StringE @136
    _ZN4APro13PluginManager3getEv @137
    _ZN4APro13PluginManager5clearEv @138
    _ZN4APro13PluginManagerC1Ev @139
    _ZN4APro13PluginManagerC2Ev @140
    _ZN4APro13PluginManagerD1Ev @141
    _ZN4APro13PluginManagerD2Ev @142
    _ZN4APro13WindowManager3getEv @143
    _ZN4APro13WindowManager4loopEv @144
    _ZN4APro13WindowManager5clearEv @145
    _ZN4APro13WindowManager6createERKNS_6StringES3_S3_b @146
    _ZN4APro13WindowManager7destroyERKNS_13SharedPointerINS_6WindowEEE @147
    _ZN4APro13WindowManager7destroyERKNS_6StringE @148
    _ZN4APro13WindowManagerC1Ev @149
    _ZN4APro13WindowManagerC2Ev @150
    _ZN4APro13WindowManagerD1Ev @151
    _ZN4APro13WindowManagerD2Ev @152
    _ZN4APro14DynamicLibrary4loadEv @153
    _ZN4APro14DynamicLibrary6unloadEv @154
    _ZN4APro14DynamicLibrary7destroyEv @155
    _ZN4APro14DynamicLibraryC1ERKNS_6StringES3_ @156
    _ZN4APro14DynamicLibraryC1Ev @157
    _ZN4APro14DynamicLibraryC2ERKNS_6StringES3_ @158
    _ZN4APro14DynamicLibraryC2Ev @159
    _ZN4APro14DynamicLibraryD0Ev @160
    _ZN4APro14DynamicLibraryD1Ev @161
    _ZN4APro14DynamicLibraryD2Ev @162
    _ZN4APro14ResourceLoaderC1ERKS0_ @163
    _ZN4APro14ResourceLoaderC1Ev @164
    _ZN4APro14ResourceLoaderC2ERKS0_ @165
    _ZN4APro14ResourceLoaderC2Ev @166
    _ZN4APro14ResourceLoaderD0Ev @167
    _ZN4APro14ResourceLoaderD1Ev @168
    _ZN4APro14ResourceLoaderD2Ev @169
    _ZN4APro14ResourceWriterC1ERKS0_ @170
    _ZN4APro14ResourceWriterC1Ev @171
    _ZN4APro14ResourceWriterC2ERKS0_ @172
    _ZN4APro14ResourceWriterC2Ev @173
    _ZN4APro14ResourceWriterD0Ev @174
    _ZN4APro14ResourceWriterD1Ev @175
    _ZN4APro14ResourceWriterD2Ev @176
    _ZN4APro14ResourceWriterlsERKNS_13SharedPointerINS_8ResourceEEE @177
    _ZN4APro15ParametedObject8getParamERKNS_6StringE @178
    _ZN4APro15ParametedObject8setParamERKNS_6StringERKNS_7VariantES3_ @179
    _ZN4APro15ParametedObjectC1ERKS0_ @180
    _ZN4APro15ParametedObjectC1Ev @181
    _ZN4APro15ParametedObjectC2ERKS0_ @182
    _ZN4APro15ParametedObjectC2Ev @183
    _ZN4APro15ParametedObjectD1Ev @184
    _ZN4APro15ParametedObjectD2Ev @185
    _ZN4APro15ResourceManager11getResourceERKNS_6StringE @186
    _ZN4APro15ResourceManager12loadResourceERKNS_6StringES3_ @187
    _ZN4APro15ResourceManager12removeLoaderERKNS_13SharedPointerINS_14ResourceLoaderEEE @188
    _ZN4APro15ResourceManager12removeWriterERKNS_13SharedPointerINS_14ResourceWriterEEE @189
    _ZN4APro15ResourceManager14unloadResourceERKNS_6StringE @190
    _ZN4APro15ResourceManager22loadResourceWithLoaderERKNS_6StringES3_S3_ @191
    _ZN4APro15ResourceManager3getEv @192
    _ZN4APro15ResourceManager5clearEv @193
    _ZN4APro15ResourceManager5writeERKNS_6StringES3_S3_ @194
    _ZN4APro15ResourceManager9addLoaderERKNS_13SharedPointerINS_14ResourceLoaderEEE @195
    _ZN4APro15ResourceManager9addWriterERKNS_13SharedPointerINS_14ResourceWriterEEE @196
    _ZN4APro15ResourceManager9getLoaderERKNS_6StringE @197
    _ZN4APro15ResourceManager9getWriterERKNS_6StringE @198
    _ZN4APro15ResourceManagerC1Ev @199
    _ZN4APro15ResourceManagerC2Ev @200
    _ZN4APro15ResourceManagerD1Ev @201
    _ZN4APro15ResourceManagerD2Ev @202
    _ZN4APro20DynamicLibraryLoader12loadResourceERKNS_6StringE @203
    _ZN4APro20DynamicLibraryLoaderC1ERKS0_ @204
    _ZN4APro20DynamicLibraryLoaderC1Ev @205
    _ZN4APro20DynamicLibraryLoaderC2ERKS0_ @206
    _ZN4APro20DynamicLibraryLoaderC2Ev @207
    _ZN4APro20DynamicLibraryLoaderD0Ev @208
    _ZN4APro20DynamicLibraryLoaderD1Ev @209
    _ZN4APro20DynamicLibraryLoaderD2Ev @210
    _ZN4APro4File3getERKNS_6StringE @211
    _ZN4APro4File3getEv @212
    _ZN4APro4File3popEjNS0_8Position1_E @213
    _ZN4APro4File3putEPKc @214
    _ZN4APro4File3putERKNS_6StringE @215
    _ZN4APro4File3putEc @216
    _ZN4APro4File4seekEiNS0_8Position1_E @217
    _ZN4APro4File5clearEv @218
    _ZN4APro4File7destroyEv @219
    _ZN4APro4File7getLineEv @220
    _ZN4APro4File9pushIndexEv @221
    _ZN4APro4FileC1ERKNS_6StringES3_NS0_8OpenMode1_E @222
    _ZN4APro4FileC1ERKNS_6StringES3_S3_NS0_8OpenMode1_E @223
    _ZN4APro4FileC1Ev @224
    _ZN4APro4FileC2ERKNS_6StringES3_NS0_8OpenMode1_E @225
    _ZN4APro4FileC2ERKNS_6StringES3_S3_NS0_8OpenMode1_E @226
    _ZN4APro4FileC2Ev @227
    _ZN4APro4FileD0Ev @228
    _ZN4APro4FileD1Ev @229
    _ZN4APro4FileD2Ev @230
    _ZN4APro4FilersERNS_6StringE @231
    _ZN4APro4FilersERc @232
    _ZN4APro4FilersERd @233
    _ZN4APro4FilersERi @234
    _ZN4APro5EventC1ERKNS_6StringE @235
    _ZN4APro5EventC1ERKS0_ @236
    _ZN4APro5EventC1Ev @237
    _ZN4APro5EventC2ERKNS_6StringE @238
    _ZN4APro5EventC2ERKS0_ @239
    _ZN4APro5EventC2Ev @240
    _ZN4APro5EventD1Ev @241
    _ZN4APro5EventD2Ev @242
    _ZN4APro6Dialog11informationERKNS_6StringES3_ @243
    _ZN4APro6Dialog3askERKNS_6StringES3_ @244
    _ZN4APro6Dialog7warningERKNS_6StringES3_ @245
    _ZN4APro6Dialog8askErrorERKNS_6StringES3_ @246
    _ZN4APro6String11assertFinalEv @247
    _ZN4APro6String2atEj @248
    _ZN4APro6String4lastEv @249
    _ZN4APro6String5clearEv @250
    _ZN4APro6String5eraseEjj @251
    _ZN4APro6String5firstEv @252
    _ZN4APro6String5toIntERKS0_ @253
    _ZN4APro6String6appendEPKc @254
    _ZN4APro6String6appendERKS0_ @255
    _ZN4APro6String6appendEc @256
    _ZN4APro6String6insertEjPKcj @257
    _ZN4APro6String6insertEjRKS0_j @258
    _ZN4APro6String6insertEjcj @259
    _ZN4APro6String7prependEPKc @260
    _ZN4APro6String7prependERKS0_ @261
    _ZN4APro6String7prependEc @262
    _ZN4APro6String7replaceERKS0_S2_ @263
    _ZN4APro6String7toArrayEv @264
    _ZN4APro6String8toStringEd @265
    _ZN4APro6String8toStringEi @266
    _ZN4APro6StringC1EPKc @267
    _ZN4APro6StringC1ERKS0_ @268
    _ZN4APro6StringC1Ev @269
    _ZN4APro6StringC2EPKc @270
    _ZN4APro6StringC2ERKS0_ @271
    _ZN4APro6StringC2Ev @272
    _ZN4APro6StringD1Ev @273
    _ZN4APro6StringD2Ev @274
    _ZN4APro6StringaSEPKc @275
    _ZN4APro6StringaSERKS0_ @276
    _ZN4APro6StringixEj @277
    _ZN4APro6StringlsEPKc @278
    _ZN4APro6StringlsERKS0_ @279
    _ZN4APro6StringlsEc @280
    _ZN4APro6Window10fullscreenEb @281
    _ZN4APro6Window10systemLoopEv @282
    _ZN4APro6Window11getKeyboardEv @283
    _ZN4APro6Window4hideEv @284
    _ZN4APro6Window4moveEiib @285
    _ZN4APro6Window4showEv @286
    _ZN4APro6Window5resetEv @287
    _ZN4APro6Window6createEv @288
    _ZN4APro6Window6resizeEjj @289
    _ZN4APro6Window7destroyEv @290
    _ZN4APro6Window8setTitleERKNS_6StringE @291
    _ZN4APro6WindowC1ERKNS_6StringES3_S3_ @292
    _ZN4APro6WindowC1ERKS0_ @293
    _ZN4APro6WindowC1Ev @294
    _ZN4APro6WindowC2ERKNS_6StringES3_S3_ @295
    _ZN4APro6WindowC2ERKS0_ @296
    _ZN4APro6WindowC2Ev @297
    _ZN4APro6WindowD0Ev @298
    _ZN4APro6WindowD1Ev @299
    _ZN4APro6WindowD2Ev @300
    _ZN4APro7Console11clearScreenEv @301
    _ZN4APro7Console15backgroundColorENS0_5Color1_E @302
    _ZN4APro7Console15foregroundColorENS0_5Color1_E @303
    _ZN4APro7Console3getEv @304
    _ZN4APro7Console3putERKNS_6StringE @305
    _ZN4APro7Console4boldEb @306
    _ZN4APro7Console4dumpEPKc @307
    _ZN4APro7Console4dumpERKNS_6StringE @308
    _ZN4APro7Console4hideEv @309
    _ZN4APro7Console4infoERKNS_6StringES3_iS3_ @310
    _ZN4APro7Console4showEv @311
    _ZN4APro7Console5blinkEb @312
    _ZN4APro7Console5resetEv @313
    _ZN4APro7Console5writeERKNS_6StringENS0_5Color1_ES5_bb @314
    _ZN4APro7Console6paramsENS0_5Color1_ES2_bb @315
    _ZN4APro7ConsoleC1Ev @316
    _ZN4APro7ConsoleC2Ev @317
    _ZN4APro7ConsoleD1Ev @318
    _ZN4APro7ConsoleD2Ev @319
    _ZN4APro7ConsolelsEPKc @320
    _ZN4APro7ConsolelsERKNS_6StringE @321
    _ZN4APro7ConsolelsEc @322
    _ZN4APro7ConsolelsEi @323
    _ZN4APro8Keyboard11registerKeyENS_3KEYE @324
    _ZN4APro8Keyboard13isRealPressedENS_3KEYE @325
    _ZN4APro8Keyboard19clearRegisteredKeysEv @326
    _ZN4APro8Keyboard4loopEv @327
    _ZN4APro8Keyboard9isPressedENS_3KEYE @328
    _ZN4APro8KeyboardC1Ev @329
    _ZN4APro8KeyboardC2Ev @330
    _ZN4APro8KeyboardD0Ev @331
    _ZN4APro8KeyboardD1Ev @332
    _ZN4APro8KeyboardD2Ev @333
    _ZN4APro8Resource11setFilenameERKNS_6StringE @334
    _ZN4APro8Resource7setNameERKNS_6StringE @335
    _ZN4APro8ResourceC1ERKNS_6StringES3_ @336
    _ZN4APro8ResourceC1ERKS0_ @337
    _ZN4APro8ResourceC1Ev @338
    _ZN4APro8ResourceC2ERKNS_6StringES3_ @339
    _ZN4APro8ResourceC2ERKS0_ @340
    _ZN4APro8ResourceC2Ev @341
    _ZN4APro8ResourceD0Ev @342
    _ZN4APro8ResourceD1Ev @343
    _ZN4APro8ResourceD2Ev @344
    _ZN4APro8ResourceaSERKS0_ @345
    _ZN4APro8allocateEjPKcS1_i @346
    _ZN4APro9ExceptionC1EPKcS2_S2_S2_i @347
    _ZN4APro9ExceptionC1ERKS0_ @348
    _ZN4APro9ExceptionC2EPKcS2_S2_S2_i @349
    _ZN4APro9ExceptionC2ERKS0_ @350
    _ZN4APro9ExceptionD0Ev @351
    _ZN4APro9ExceptionD1Ev @352
    _ZN4APro9ExceptionD2Ev @353
    _ZNK4APro10FileWriter5writeERKNS_13SharedPointerINS_8ResourceEEERKNS_6StringE @354
    _ZNK4APro10NullWriter5writeERKNS_13SharedPointerINS_8ResourceEEERKNS_6StringE @355
    _ZNK4APro12EventEmitter11createEventERKNS_6StringE @356
    _ZNK4APro12EventEmitter14createListenerERKNS_6StringE @357
    _ZNK4APro12PluginHandle13getPluginInfoEv @358
    _ZNK4APro12PluginHandle7getNameEv @359
    _ZNK4APro13EventListener4nameEv @360
    _ZNK4APro13MemoryTracker11getFilenameEv @361
    _ZNK4APro13MemoryTracker13isLiveWritingEv @362
    _ZNK4APro13MemoryTracker15maxFilenameSizeEv @363
    _ZNK4APro13MemoryTracker17isCuttingFilenameEv @364
    _ZNK4APro13MemoryTracker22getTotalBytesAllocatedEv @365
    _ZNK4APro13MemoryTracker24getAverageBytesAllocatedEv @366
    _ZNK4APro13MemoryTracker24getCurrentBytesAllocatedEv @367
    _ZNK4APro13MemoryTracker24getObjectAllocatedNumberEv @368
    _ZNK4APro13MemoryTracker25getCurrentObjectAllocatedEv @369
    _ZNK4APro13WindowManager15getWindowNumberEv @370
    _ZNK4APro13WindowManager9getWindowERKNS_6StringE @371
    _ZNK4APro13WindowManager9getWindowEj @372
    _ZNK4APro14DynamicLibrary8isLoadedEv @373
    _ZNK4APro14DynamicLibrary9getSymbolERKNS_6StringE @374
    _ZNK4APro14ResourceLoader10extensionsEv @375
    _ZNK4APro14ResourceLoader11descriptionEv @376
    _ZNK4APro14ResourceLoader4nameEv @377
    _ZNK4APro14ResourceLoader8isManualEv @378
    _ZNK4APro14ResourceWriter11descriptionEv @379
    _ZNK4APro14ResourceWriter4nameEv @380
    _ZNK4APro14ResourceWriter5writeERKNS_13SharedPointerINS_8ResourceEEERKNS_6StringE @381
    _ZNK4APro15ParametedObject14listParametersEv @382
    _ZNK4APro15ParametedObject8getParamERKNS_6StringE @383
    _ZNK4APro15ResourceManager11listLoadersEv @384
    _ZNK4APro15ResourceManager11listWritersEv @385
    _ZNK4APro15ResourceManager13listResourcesEv @386
    _ZNK4APro4File4sizeEv @387
    _ZNK4APro4File5isEOFEv @388
    _ZNK4APro4File7getDataEv @389
    _ZNK4APro4File8toStringEv @390
    _ZNK4APro5Event4typeEv @391
    _ZNK4APro6String10toCstArrayEv @392
    _ZNK4APro6String2atEj @393
    _ZNK4APro6String4lastEv @394
    _ZNK4APro6String4sizeEv @395
    _ZNK4APro6String5firstEv @396
    _ZNK4APro6String5matchERKS0_ @397
    _ZNK4APro6String5matchEc @398
    _ZNK4APro6String7explodeEPKc @399
    _ZNK4APro6String7explodeERKS0_ @400
    _ZNK4APro6String7explodeEc @401
    _ZNK4APro6String7extractEjj @402
    _ZNK4APro6String7isEmptyEv @403
    _ZNK4APro6String8findLastERKS0_ @404
    _ZNK4APro6String8findLastEc @405
    _ZNK4APro6String9findFirstERKS0_j @406
    _ZNK4APro6String9findFirstEcj @407
    _ZNK4APro6String9toCstCharEv @408
    _ZNK4APro6StringeqEPKc @409
    _ZNK4APro6StringeqERKS0_ @410
    _ZNK4APro6StringixEj @411
    _ZNK4APro6StringneEPKc @412
    _ZNK4APro6StringneERKS0_ @413
    _ZNK4APro6StringplERKS0_ @414
    _ZNK4APro6Window10showCursorEb @415
    _ZNK4APro6Window11createEventERKNS_6StringE @416
    _ZNK4APro6Window12isFullScreenEv @417
    _ZNK4APro6Window4nameEv @418
    _ZNK4APro6Window4sizeEv @419
    _ZNK4APro6Window5titleEv @420
    _ZNK4APro6Window6statusEv @421
    _ZNK4APro6Window8positionEv @422
    _ZNK4APro8Keyboard11createEventERKNS_6StringE @423
    _ZNK4APro8Keyboard14createListenerERKNS_6StringE @424
    _ZNK4APro8Resource11getFilenameEv @425
    _ZNK4APro8Resource7getNameEv @426
    _ZNK4APro8Resource7getTypeEv @427
    _ZNK4APro9Exception10getMessageEv @428
    _ZNK4APro9Exception11getFunctionEv @429
    _ZNK4APro9Exception18getFullDescriptionEv @430
    _ZNK4APro9Exception6isNullEv @431
    _ZNK4APro9Exception7getLineEv @432
    _ZNK4APro9Exception7getTypeEv @433
    _ZNK4APro9Exception8getClassEv @434
    _ZTVN4APro10FileLoaderE @435 DATA
    _ZTVN4APro10FileWriterE @436 DATA
    _ZTVN4APro10NullLoaderE @437 DATA
    _ZTVN4APro10NullWriterE @438 DATA
    _ZTVN4APro12EventEmitterE @439 DATA
    _ZTVN4APro12NullResourceE @440 DATA
    _ZTVN4APro13EventListenerE @441 DATA
    _ZTVN4APro13EventReceiverE @442 DATA
    _ZTVN4APro14DynamicLibraryE @443 DATA
    _ZTVN4APro14ResourceLoaderE @444 DATA
    _ZTVN4APro14ResourceWriterE @445 DATA
    _ZTVN4APro20DynamicLibraryLoaderE @446 DATA
    _ZTVN4APro4FileE @447 DATA
    _ZTVN4APro6WindowE @448 DATA
    _ZTVN4APro8KeyboardE @449 DATA
    _ZTVN4APro8ResourceE @450 DATA
    _ZTVN4APro9ExceptionE @451 DATA
